; Function Attrs: mustprogress uwtable
define void @_ZN5faiss11IndexIVFPQRC2Ev(ptr noundef nonnull align 8 dereferenceable(788) %0) unnamed_addr #2 align 2 personality ptr @__gxx_personality_v0 {
  tail call void @_ZN5faiss10IndexIVFPQC2Ev(ptr noundef nonnull align 8 dereferenceable(544) %0)
  store ptr getelementptr inbounds nuw inrange(-16, 272) (i8, ptr @_ZTVN5faiss11IndexIVFPQRE, i64 16), ptr %0, align 8, !tbaa !4
  %2 = getelementptr inbounds nuw i8, ptr %0, i64 40
  store ptr getelementptr inbounds nuw inrange(-16, 32) (i8, ptr @_ZTVN5faiss11IndexIVFPQRE, i64 304), ptr %2, align 8, !tbaa !4
  %3 = getelementptr inbounds nuw i8, ptr %0, i64 544
  invoke void @_ZN5faiss16ProductQuantizerC1Ev(ptr noundef nonnull align 8 dereferenceable(216) %3)
          to label %4 unwind label %9

4:                                                ; preds = %1
  %5 = getelementptr inbounds nuw i8, ptr %0, i64 760
  tail call void @llvm.memset.p0.i64(ptr noundef nonnull align 8 dereferenceable(24) %5, i8 0, i64 24, i1 false)
  %6 = getelementptr inbounds nuw i8, ptr %0, i64 784
  store float 1.000000e+00, ptr %6, align 8, !tbaa !85
  %7 = getelementptr inbounds nuw i8, ptr %0, i64 264
  store i8 1, ptr %7, align 8, !tbaa !92
  %8 = getelementptr inbounds nuw i8, ptr %0, i64 628
  store i32 1000, ptr %8, align 4, !tbaa !80
  ret void

9:                                                ; preds = %1
  %10 = landingpad { ptr, i32 }
          cleanup
  tail call void @_ZN5faiss10IndexIVFPQD2Ev(ptr noundef nonnull align 8 dereferenceable(544) %0) #19
  resume { ptr, i32 } %10
}